; Function Attrs: nounwind uwtable
define dso_local void @_PyErr_SetKeyError(ptr noundef %0) local_unnamed_addr #0 {
  %2 = tail call align 8 ptr @llvm.threadlocal.address.p0(ptr align 8 @_Py_tss_tstate)
  %3 = load ptr, ptr %2, align 8, !tbaa !25
  %4 = load ptr, ptr @PyExc_KeyError, align 8, !tbaa !24
  %5 = tail call ptr @PyObject_CallOneArg(ptr noundef %4, ptr noundef %0) #17
  %.not = icmp eq ptr %5, null
  br i1 %.not, label %Py_DECREF.exit, label %6

6:                                                ; preds = %1
  %7 = getelementptr i8, ptr %5, i64 8
  %.val = load ptr, ptr %7, align 8, !tbaa !21
  tail call void @_PyErr_SetObject(ptr noundef %3, ptr noundef %.val, ptr noundef nonnull %5)
  %8 = load i32, ptr %5, align 8, !tbaa !20
  %.not.i = icmp sgt i32 %8, -1
  br i1 %.not.i, label %9, label %Py_DECREF.exit

9:                                                ; preds = %6
  %10 = add nsw i32 %8, -1
  store i32 %10, ptr %5, align 8, !tbaa !20
  %11 = icmp eq i32 %10, 0
  br i1 %11, label %12, label %Py_DECREF.exit

12:                                               ; preds = %9
  tail call void @_Py_Dealloc(ptr noundef nonnull %5) #17
  br label %Py_DECREF.exit

Py_DECREF.exit:                                   ; preds = %12, %9, %6, %1
  ret void
}